target datalayout = "e-m:e-p270:32:32-p271:32:32-p272:64:64-i64:64-i128:128-f80:128-n8:16:32:64-S128"
target triple = "x86_64-pc-linux-gnu"

%struct.dirent = type { i64, i64, i16, i8, [256 x i8] }

@.str = private unnamed_addr constant [36 x i8] c"could not create directory \22%s\22: %m\00", align 1
@.str.1 = private unnamed_addr constant [10 x i8] c"copydir.c\00", align 1
@__func__.copydir = private unnamed_addr constant [8 x i8] c"copydir\00", align 1
@InterruptPending = external global i32, align 4
@.str.2 = private unnamed_addr constant [2 x i8] c".\00", align 1
@.str.3 = private unnamed_addr constant [3 x i8] c"..\00", align 1
@.str.4 = private unnamed_addr constant [6 x i8] c"%s/%s\00", align 1
@enableFsync = external global i8, align 1

; Function Attrs: nounwind uwtable
define dso_local void @copydir(ptr noundef %0, ptr noundef %1, i1 noundef zeroext %2) #0 {
  %4 = alloca ptr, align 8
  %5 = alloca ptr, align 8
  %6 = alloca i8, align 1
  %7 = alloca ptr, align 8
  %8 = alloca ptr, align 8
  %9 = alloca [2048 x i8], align 16
  %10 = alloca [2048 x i8], align 16
  %11 = alloca i32, align 4
  %12 = alloca i32, align 4
  store ptr %0, ptr %4, align 8
  store ptr %1, ptr %5, align 8
  %13 = zext i1 %2 to i8
  store i8 %13, ptr %6, align 1
  call void @llvm.lifetime.start.p0(i64 8, ptr %7) #8
  call void @llvm.lifetime.start.p0(i64 8, ptr %8) #8
  call void @llvm.lifetime.start.p0(i64 2048, ptr %9) #8
  call void @llvm.lifetime.start.p0(i64 2048, ptr %10) #8
  %14 = load ptr, ptr %5, align 8
  %15 = call i32 @MakePGDirectory(ptr noundef %14)
  %16 = icmp ne i32 %15, 0
  br i1 %16, label %17, label %30

17:                                               ; preds = %3
  br label %18

18:                                               ; preds = %17
  br i1 true, label %19, label %21

19:                                               ; preds = %18
  %20 = call zeroext i1 @errstart_cold(i32 noundef 21, ptr noundef null) #9
  br i1 %20, label %23, label %27

21:                                               ; preds = %18
  %22 = call zeroext i1 @errstart(i32 noundef 21, ptr noundef null)
  br i1 %22, label %23, label %27

23:                                               ; preds = %21, %19
  %24 = call i32 @errcode_for_file_access()
  %25 = load ptr, ptr %5, align 8
  %26 = call i32 (ptr, ...) @errmsg(ptr noundef @.str, ptr noundef %25)
  call void @errfinish(ptr noundef @.str.1, i32 noundef 47, ptr noundef @__func__.copydir)
  br label %27

27:                                               ; preds = %23, %21, %19
  unreachable

28:                                               ; No predecessors!
  br label %29

29:                                               ; preds = %28
  br label %30

30:                                               ; preds = %29, %3
  %31 = load ptr, ptr %4, align 8
  %32 = call ptr @AllocateDir(ptr noundef %31)
  store ptr %32, ptr %7, align 8
  br label %33

33:                                               ; preds = %97, %95, %30
  %34 = load ptr, ptr %7, align 8
  %35 = load ptr, ptr %4, align 8
  %36 = call ptr @ReadDir(ptr noundef %34, ptr noundef %35)
  store ptr %36, ptr %8, align 8
  %37 = icmp ne ptr %36, null
  br i1 %37, label %38, label %98

38:                                               ; preds = %33
  call void @llvm.lifetime.start.p0(i64 4, ptr %11) #8
  br label %39

39:                                               ; preds = %38
  %40 = load volatile i32, ptr @InterruptPending, align 4
  %41 = icmp ne i32 %40, 0
  %42 = zext i1 %41 to i32
  %43 = sext i32 %42 to i64
  %44 = call i64 @llvm.expect.i64(i64 %43, i64 0)
  %45 = icmp ne i64 %44, 0
  br i1 %45, label %46, label %47

46:                                               ; preds = %39
  call void @ProcessInterrupts()
  br label %47

47:                                               ; preds = %46, %39
  br label %48

48:                                               ; preds = %47
  br label %49

49:                                               ; preds = %48
  %50 = load ptr, ptr %8, align 8
  %51 = getelementptr inbounds nuw %struct.dirent, ptr %50, i32 0, i32 4
  %52 = getelementptr inbounds [256 x i8], ptr %51, i64 0, i64 0
  %53 = call i32 @strcmp(ptr noundef %52, ptr noundef @.str.2) #10
  %54 = icmp eq i32 %53, 0
  br i1 %54, label %61, label %55

55:                                               ; preds = %49
  %56 = load ptr, ptr %8, align 8
  %57 = getelementptr inbounds nuw %struct.dirent, ptr %56, i32 0, i32 4
  %58 = getelementptr inbounds [256 x i8], ptr %57, i64 0, i64 0
  %59 = call i32 @strcmp(ptr noundef %58, ptr noundef @.str.3) #10
  %60 = icmp eq i32 %59, 0
  br i1 %60, label %61, label %62

61:                                               ; preds = %55, %49
  store i32 4, ptr %12, align 4
  br label %95, !llvm.loop !4

62:                                               ; preds = %55
  %63 = getelementptr inbounds [2048 x i8], ptr %9, i64 0, i64 0
  %64 = load ptr, ptr %4, align 8
  %65 = load ptr, ptr %8, align 8
  %66 = getelementptr inbounds nuw %struct.dirent, ptr %65, i32 0, i32 4
  %67 = getelementptr inbounds [256 x i8], ptr %66, i64 0, i64 0
  %68 = call i32 (ptr, i64, ptr, ...) @pg_snprintf(ptr noundef %63, i64 noundef 2048, ptr noundef @.str.4, ptr noundef %64, ptr noundef %67)
  %69 = getelementptr inbounds [2048 x i8], ptr %10, i64 0, i64 0
  %70 = load ptr, ptr %5, align 8
  %71 = load ptr, ptr %8, align 8
  %72 = getelementptr inbounds nuw %struct.dirent, ptr %71, i32 0, i32 4
  %73 = getelementptr inbounds [256 x i8], ptr %72, i64 0, i64 0
  %74 = call i32 (ptr, i64, ptr, ...) @pg_snprintf(ptr noundef %69, i64 noundef 2048, ptr noundef @.str.4, ptr noundef %70, ptr noundef %73)
  %75 = getelementptr inbounds [2048 x i8], ptr %9, i64 0, i64 0
  %76 = load ptr, ptr %8, align 8
  %77 = call i32 @get_dirent_type(ptr noundef %75, ptr noundef %76, i1 noundef zeroext false, i32 noundef 21)
  store i32 %77, ptr %11, align 4
  %78 = load i32, ptr %11, align 4
  %79 = icmp eq i32 %78, 3
  br i1 %79, label %80, label %87

80:                                               ; preds = %62
  %81 = load i8, ptr %6, align 1, !range !6, !noundef !7
  %82 = trunc i8 %81 to i1
  br i1 %82, label %83, label %86

83:                                               ; preds = %80
  %84 = getelementptr inbounds [2048 x i8], ptr %9, i64 0, i64 0
  %85 = getelementptr inbounds [2048 x i8], ptr %10, i64 0, i64 0
  call void @copydir(ptr noundef %84, ptr noundef %85, i1 noundef zeroext true)
  br label %86

86:                                               ; preds = %83, %80
  br label %94

87:                                               ; preds = %62
  %88 = load i32, ptr %11, align 4
  %89 = icmp eq i32 %88, 2
  br i1 %89, label %90, label %93

90:                                               ; preds = %87
  %91 = getelementptr inbounds [2048 x i8], ptr %9, i64 0, i64 0
  %92 = getelementptr inbounds [2048 x i8], ptr %10, i64 0, i64 0
  call void @copy_file(ptr noundef %91, ptr noundef %92)
  br label %93

93:                                               ; preds = %90, %87
  br label %94

94:                                               ; preds = %93, %86
  store i32 0, ptr %12, align 4
  br label %95

95:                                               ; preds = %94, %61
  call void @llvm.lifetime.end.p0(i64 4, ptr %11) #8
  %96 = load i32, ptr %12, align 4
  switch i32 %96, label %146 [
    i32 0, label %97
    i32 4, label %33
  ]

97:                                               ; preds = %95
  br label %33, !llvm.loop !4

98:                                               ; preds = %33
  %99 = load ptr, ptr %7, align 8
  %100 = call i32 @FreeDir(ptr noundef %99)
  %101 = load i8, ptr @enableFsync, align 1, !range !6, !noundef !7
  %102 = trunc i8 %101 to i1
  br i1 %102, label %104, label %103

103:                                              ; preds = %98
  store i32 1, ptr %12, align 4
  br label %143

104:                                              ; preds = %98
  %105 = load ptr, ptr %5, align 8
  %106 = call ptr @AllocateDir(ptr noundef %105)
  store ptr %106, ptr %7, align 8
  br label %107

107:                                              ; preds = %138, %124, %104
  %108 = load ptr, ptr %7, align 8
  %109 = load ptr, ptr %5, align 8
  %110 = call ptr @ReadDir(ptr noundef %108, ptr noundef %109)
  store ptr %110, ptr %8, align 8
  %111 = icmp ne ptr %110, null
  br i1 %111, label %112, label %139

112:                                              ; preds = %107
  %113 = load ptr, ptr %8, align 8
  %114 = getelementptr inbounds nuw %struct.dirent, ptr %113, i32 0, i32 4
  %115 = getelementptr inbounds [256 x i8], ptr %114, i64 0, i64 0
  %116 = call i32 @strcmp(ptr noundef %115, ptr noundef @.str.2) #10
  %117 = icmp eq i32 %116, 0
  br i1 %117, label %124, label %118

118:                                              ; preds = %112
  %119 = load ptr, ptr %8, align 8
  %120 = getelementptr inbounds nuw %struct.dirent, ptr %119, i32 0, i32 4
  %121 = getelementptr inbounds [256 x i8], ptr %120, i64 0, i64 0
  %122 = call i32 @strcmp(ptr noundef %121, ptr noundef @.str.3) #10
  %123 = icmp eq i32 %122, 0
  br i1 %123, label %124, label %125

124:                                              ; preds = %118, %112
  br label %107, !llvm.loop !8

125:                                              ; preds = %118
  %126 = getelementptr inbounds [2048 x i8], ptr %10, i64 0, i64 0
  %127 = load ptr, ptr %5, align 8
  %128 = load ptr, ptr %8, align 8
  %129 = getelementptr inbounds nuw %struct.dirent, ptr %128, i32 0, i32 4
  %130 = getelementptr inbounds [256 x i8], ptr %129, i64 0, i64 0
  %131 = call i32 (ptr, i64, ptr, ...) @pg_snprintf(ptr noundef %126, i64 noundef 2048, ptr noundef @.str.4, ptr noundef %127, ptr noundef %130)
  %132 = getelementptr inbounds [2048 x i8], ptr %10, i64 0, i64 0
  %133 = load ptr, ptr %8, align 8
  %134 = call i32 @get_dirent_type(ptr noundef %132, ptr noundef %133, i1 noundef zeroext false, i32 noundef 21)
  %135 = icmp eq i32 %134, 2
  br i1 %135, label %136, label %138

136:                                              ; preds = %125
  %137 = getelementptr inbounds [2048 x i8], ptr %10, i64 0, i64 0
  call void @fsync_fname(ptr noundef %137, i1 noundef zeroext false)
  br label %138

138:                                              ; preds = %136, %125
  br label %107, !llvm.loop !8

139:                                              ; preds = %107
  %140 = load ptr, ptr %7, align 8
  %141 = call i32 @FreeDir(ptr noundef %140)
  %142 = load ptr, ptr %5, align 8
  call void @fsync_fname(ptr noundef %142, i1 noundef zeroext true)
  store i32 0, ptr %12, align 4
  br label %143

143:                                              ; preds = %139, %103
  call void @llvm.lifetime.end.p0(i64 2048, ptr %10) #8
  call void @llvm.lifetime.end.p0(i64 2048, ptr %9) #8
  call void @llvm.lifetime.end.p0(i64 8, ptr %8) #8
  call void @llvm.lifetime.end.p0(i64 8, ptr %7) #8
  %144 = load i32, ptr %12, align 4
  switch i32 %144, label %146 [
    i32 0, label %145
    i32 1, label %145
  ]

145:                                              ; preds = %143, %143
  ret void

146:                                              ; preds = %143, %95
  unreachable
}