; Function Attrs: nounwind uwtable
define dso_local void @copydir(ptr noundef %0, ptr noundef %1, i1 noundef zeroext %2) local_unnamed_addr #0 {
  %4 = alloca [2048 x i8], align 16
  %5 = alloca [2048 x i8], align 16
  call void @llvm.lifetime.start.p0(i64 2048, ptr nonnull %4) #7
  call void @llvm.lifetime.start.p0(i64 2048, ptr nonnull %5) #7
  %6 = tail call i32 @MakePGDirectory(ptr noundef %1) #7
  %.not = icmp eq i32 %6, 0
  br i1 %.not, label %11, label %7

7:                                                ; preds = %3
  %8 = tail call zeroext i1 @errstart_cold(i32 noundef 21, ptr noundef null) #8
  tail call void @llvm.assume(i1 %8)
  %9 = tail call i32 @errcode_for_file_access() #7
  %10 = tail call i32 (ptr, ...) @errmsg(ptr noundef nonnull @.str, ptr noundef %1) #7
  tail call void @errfinish(ptr noundef nonnull @.str.1, i32 noundef 47, ptr noundef nonnull @__func__.copydir) #7
  unreachable

11:                                               ; preds = %3
  %12 = tail call ptr @AllocateDir(ptr noundef %0) #7
  %13 = tail call ptr @ReadDir(ptr noundef %12, ptr noundef %0) #7
  %.not2743 = icmp eq ptr %13, null
  br i1 %.not2743, label %._crit_edge, label %.lr.ph

.lr.ph:                                           ; preds = %11
  br i1 %2, label %.lr.ph.split.us, label %.lr.ph.split

.lr.ph.split.us:                                  ; preds = %.lr.ph, %32
  %14 = phi ptr [ %33, %32 ], [ %13, %.lr.ph ]
  %15 = load volatile i32, ptr @InterruptPending, align 4
  %.not29.us = icmp eq i32 %15, 0
  br i1 %.not29.us, label %sub_0.us, label %16, !prof !4

16:                                               ; preds = %.lr.ph.split.us
  call void @ProcessInterrupts() #7
  br label %sub_0.us

sub_0.us:                                         ; preds = %16, %.lr.ph.split.us
  %17 = getelementptr inbounds nuw i8, ptr %14, i64 19
  %18 = load i8, ptr %17, align 1
  %.not49 = icmp eq i8 %18, 46
  br i1 %.not49, label %.tail.us, label %.tail30.us.thread

.tail.us:                                         ; preds = %sub_0.us
  %19 = getelementptr inbounds nuw i8, ptr %14, i64 20
  %20 = load i8, ptr %19, align 1
  %21 = icmp eq i8 %20, 0
  br i1 %21, label %32, label %sub_132.us, !llvm.loop !5

sub_132.us:                                       ; preds = %.tail.us
  %22 = getelementptr inbounds nuw i8, ptr %14, i64 20
  %23 = load i8, ptr %22, align 1
  %.not51 = icmp eq i8 %23, 46
  br i1 %.not51, label %.tail30.us, label %.tail30.us.thread

.tail30.us:                                       ; preds = %sub_132.us
  %24 = getelementptr inbounds nuw i8, ptr %14, i64 21
  %25 = load i8, ptr %24, align 1
  %26 = icmp eq i8 %25, 0
  br i1 %26, label %32, label %.tail30.us.thread, !llvm.loop !5

.tail30.us.thread:                                ; preds = %sub_0.us, %sub_132.us, %.tail30.us
  %27 = call i32 (ptr, i64, ptr, ...) @pg_snprintf(ptr noundef nonnull %4, i64 noundef 2048, ptr noundef nonnull @.str.4, ptr noundef %0, ptr noundef nonnull %17) #7
  %28 = call i32 (ptr, i64, ptr, ...) @pg_snprintf(ptr noundef nonnull %5, i64 noundef 2048, ptr noundef nonnull @.str.4, ptr noundef %1, ptr noundef nonnull %17) #7
  %29 = call i32 @get_dirent_type(ptr noundef nonnull %4, ptr noundef nonnull %14, i1 noundef zeroext false, i32 noundef 21) #7
  switch i32 %29, label %32 [
    i32 3, label %31
    i32 2, label %30
  ]

30:                                               ; preds = %.tail30.us.thread
  call void @copy_file(ptr noundef nonnull %4, ptr noundef nonnull %5)
  br label %32

31:                                               ; preds = %.tail30.us.thread
  call void @copydir(ptr noundef nonnull %4, ptr noundef nonnull %5, i1 noundef zeroext true)
  br label %32

32:                                               ; preds = %31, %30, %.tail30.us.thread, %.tail30.us, %.tail.us
  %33 = call ptr @ReadDir(ptr noundef %12, ptr noundef %0) #7
  %.not27.us = icmp eq ptr %33, null
  br i1 %.not27.us, label %._crit_edge, label %.lr.ph.split.us

.lr.ph.split:                                     ; preds = %.lr.ph, %51
  %34 = phi ptr [ %52, %51 ], [ %13, %.lr.ph ]
  %35 = load volatile i32, ptr @InterruptPending, align 4
  %.not29 = icmp eq i32 %35, 0
  br i1 %.not29, label %sub_0, label %36, !prof !4

36:                                               ; preds = %.lr.ph.split
  call void @ProcessInterrupts() #7
  br label %sub_0

sub_0:                                            ; preds = %36, %.lr.ph.split
  %37 = getelementptr inbounds nuw i8, ptr %34, i64 19
  %38 = load i8, ptr %37, align 1
  %.not46 = icmp eq i8 %38, 46
  br i1 %.not46, label %.tail, label %.tail30.thread

.tail:                                            ; preds = %sub_0
  %39 = getelementptr inbounds nuw i8, ptr %34, i64 20
  %40 = load i8, ptr %39, align 1
  %41 = icmp eq i8 %40, 0
  br i1 %41, label %51, label %sub_132, !llvm.loop !5

sub_132:                                          ; preds = %.tail
  %42 = getelementptr inbounds nuw i8, ptr %34, i64 20
  %43 = load i8, ptr %42, align 1
  %.not48 = icmp eq i8 %43, 46
  br i1 %.not48, label %.tail30, label %.tail30.thread

.tail30:                                          ; preds = %sub_132
  %44 = getelementptr inbounds nuw i8, ptr %34, i64 21
  %45 = load i8, ptr %44, align 1
  %46 = icmp eq i8 %45, 0
  br i1 %46, label %51, label %.tail30.thread, !llvm.loop !5

.tail30.thread:                                   ; preds = %sub_0, %sub_132, %.tail30
  %47 = call i32 (ptr, i64, ptr, ...) @pg_snprintf(ptr noundef nonnull %4, i64 noundef 2048, ptr noundef nonnull @.str.4, ptr noundef %0, ptr noundef nonnull %37) #7
  %48 = call i32 (ptr, i64, ptr, ...) @pg_snprintf(ptr noundef nonnull %5, i64 noundef 2048, ptr noundef nonnull @.str.4, ptr noundef %1, ptr noundef nonnull %37) #7
  %49 = call i32 @get_dirent_type(ptr noundef nonnull %4, ptr noundef nonnull %34, i1 noundef zeroext false, i32 noundef 21) #7
  %cond = icmp eq i32 %49, 2
  br i1 %cond, label %50, label %51

50:                                               ; preds = %.tail30.thread
  call void @copy_file(ptr noundef nonnull %4, ptr noundef nonnull %5)
  br label %51

51:                                               ; preds = %.tail30.thread, %50, %.tail, %.tail30
  %52 = call ptr @ReadDir(ptr noundef %12, ptr noundef %0) #7
  %.not27 = icmp eq ptr %52, null
  br i1 %.not27, label %._crit_edge, label %.lr.ph.split

._crit_edge:                                      ; preds = %51, %32, %11
  %53 = call i32 @FreeDir(ptr noundef %12) #7
  %54 = load i8, ptr @enableFsync, align 1, !range !7, !noundef !8
  %55 = trunc nuw i8 %54 to i1
  br i1 %55, label %56, label %76

56:                                               ; preds = %._crit_edge
  %57 = call ptr @AllocateDir(ptr noundef %1) #7
  %58 = call ptr @ReadDir(ptr noundef %57, ptr noundef %1) #7
  %.not2844 = icmp eq ptr %58, null
  br i1 %.not2844, label %._crit_edge45, label %sub_035

sub_035:                                          ; preds = %56, %.backedge
  %59 = phi ptr [ %70, %.backedge ], [ %58, %56 ]
  %60 = getelementptr inbounds nuw i8, ptr %59, i64 19
  %61 = load i8, ptr %60, align 1
  %.not52 = icmp eq i8 %61, 46
  br i1 %.not52, label %.tail34, label %.tail38.thread

.tail34:                                          ; preds = %sub_035
  %62 = getelementptr inbounds nuw i8, ptr %59, i64 20
  %63 = load i8, ptr %62, align 1
  %64 = icmp eq i8 %63, 0
  br i1 %64, label %.backedge, label %sub_140

sub_140:                                          ; preds = %.tail34
  %65 = getelementptr inbounds nuw i8, ptr %59, i64 20
  %66 = load i8, ptr %65, align 1
  %.not54 = icmp eq i8 %66, 46
  br i1 %.not54, label %.tail38, label %.tail38.thread

.tail38:                                          ; preds = %sub_140
  %67 = getelementptr inbounds nuw i8, ptr %59, i64 21
  %68 = load i8, ptr %67, align 1
  %69 = icmp eq i8 %68, 0
  br i1 %69, label %.backedge, label %.tail38.thread

.backedge:                                        ; preds = %.tail38.thread, %74, %.tail34, %.tail38
  %70 = call ptr @ReadDir(ptr noundef %57, ptr noundef %1) #7
  %.not28 = icmp eq ptr %70, null
  br i1 %.not28, label %._crit_edge45, label %sub_035, !llvm.loop !9

.tail38.thread:                                   ; preds = %sub_035, %sub_140, %.tail38
  %71 = call i32 (ptr, i64, ptr, ...) @pg_snprintf(ptr noundef nonnull %5, i64 noundef 2048, ptr noundef nonnull @.str.4, ptr noundef %1, ptr noundef nonnull %60) #7
  %72 = call i32 @get_dirent_type(ptr noundef nonnull %5, ptr noundef nonnull %59, i1 noundef zeroext false, i32 noundef 21) #7
  %73 = icmp eq i32 %72, 2
  br i1 %73, label %74, label %.backedge

74:                                               ; preds = %.tail38.thread
  call void @fsync_fname(ptr noundef nonnull %5, i1 noundef zeroext false) #7
  br label %.backedge

._crit_edge45:                                    ; preds = %.backedge, %56
  %75 = call i32 @FreeDir(ptr noundef %57) #7
  call void @fsync_fname(ptr noundef %1, i1 noundef zeroext true) #7
  br label %76

76:                                               ; preds = %._crit_edge, %._crit_edge45
  call void @llvm.lifetime.end.p0(i64 2048, ptr nonnull %5) #7
  call void @llvm.lifetime.end.p0(i64 2048, ptr nonnull %4) #7
  ret void
}